target datalayout = "e-m:e-p270:32:32-p271:32:32-p272:64:64-i64:64-i128:128-f80:128-n8:16:32:64-S128"
target triple = "x86_64-pc-linux-gnu"

%struct.AVChannelLayout = type { i32, i32, %union.anon.1, ptr }
%union.anon.1 = type { i64 }
%struct.AVFilterContext = type { ptr, ptr, ptr, ptr, ptr, i32, ptr, ptr, i32, ptr, ptr, i32, i32, ptr, ptr, ptr, ptr, i32, ptr, i32, i32 }
%struct.ANoiseSrcContext = type { ptr, i32, double, double, i64, i32, i64, i32, i64, i32, ptr, [7 x double], %struct.AVLFG }
%struct.AVLFG = type { [64 x i32], i32 }
%struct.AVRational = type { i32, i32 }
%struct.AVFilterLink = type { ptr, ptr, ptr, ptr, i32, i32, i32, i32, %struct.AVRational, i32, i32, i32, %struct.AVChannelLayout, %struct.AVRational, ptr, i32, %struct.AVFilterFormatsConfig, %struct.AVFilterFormatsConfig }
%struct.AVFilterFormatsConfig = type { ptr, ptr, ptr, ptr, ptr }

; Function Attrs: cold nounwind optsize uwtable
define internal i32 @config_props(ptr noundef %0) #0 {
  %2 = alloca ptr, align 8
  %3 = alloca ptr, align 8
  %4 = alloca ptr, align 8
  store ptr %0, ptr %2, align 8, !tbaa !33
  call void @llvm.lifetime.start.p0(i64 8, ptr %3) #7
  %5 = load ptr, ptr %2, align 8, !tbaa !33
  %6 = getelementptr inbounds nuw %struct.AVFilterLink, ptr %5, i32 0, i32 0
  %7 = load ptr, ptr %6, align 8, !tbaa !56
  store ptr %7, ptr %3, align 8, !tbaa !4
  call void @llvm.lifetime.start.p0(i64 8, ptr %4) #7
  %8 = load ptr, ptr %3, align 8, !tbaa !4
  %9 = getelementptr inbounds nuw %struct.AVFilterContext, ptr %8, i32 0, i32 9
  %10 = load ptr, ptr %9, align 8, !tbaa !12
  store ptr %10, ptr %4, align 8, !tbaa !24
  %11 = load ptr, ptr %4, align 8, !tbaa !24
  %12 = getelementptr inbounds nuw %struct.ANoiseSrcContext, ptr %11, i32 0, i32 6
  %13 = load i64, ptr %12, align 8, !tbaa !61
  %14 = icmp eq i64 %13, -1
  br i1 %14, label %15, label %20

15:                                               ; preds = %1
  %16 = call i32 @av_get_random_seed()
  %17 = zext i32 %16 to i64
  %18 = load ptr, ptr %4, align 8, !tbaa !24
  %19 = getelementptr inbounds nuw %struct.ANoiseSrcContext, ptr %18, i32 0, i32 6
  store i64 %17, ptr %19, align 8, !tbaa !61
  br label %20

20:                                               ; preds = %15, %1
  %21 = load ptr, ptr %4, align 8, !tbaa !24
  %22 = getelementptr inbounds nuw %struct.ANoiseSrcContext, ptr %21, i32 0, i32 12
  %23 = load ptr, ptr %4, align 8, !tbaa !24
  %24 = getelementptr inbounds nuw %struct.ANoiseSrcContext, ptr %23, i32 0, i32 6
  %25 = load i64, ptr %24, align 8, !tbaa !61
  %26 = trunc i64 %25 to i32
  call void @av_lfg_init(ptr noundef %22, i32 noundef %26)
  %27 = load ptr, ptr %4, align 8, !tbaa !24
  %28 = getelementptr inbounds nuw %struct.ANoiseSrcContext, ptr %27, i32 0, i32 4
  %29 = load i64, ptr %28, align 8, !tbaa !36
  %30 = icmp eq i64 %29, 0
  br i1 %30, label %31, label %34

31:                                               ; preds = %20
  %32 = load ptr, ptr %4, align 8, !tbaa !24
  %33 = getelementptr inbounds nuw %struct.ANoiseSrcContext, ptr %32, i32 0, i32 9
  store i32 1, ptr %33, align 8, !tbaa !35
  br label %34

34:                                               ; preds = %31, %20
  %35 = load ptr, ptr %4, align 8, !tbaa !24
  %36 = getelementptr inbounds nuw %struct.ANoiseSrcContext, ptr %35, i32 0, i32 4
  %37 = load i64, ptr %36, align 8, !tbaa !36
  %38 = load ptr, ptr %4, align 8, !tbaa !24
  %39 = getelementptr inbounds nuw %struct.ANoiseSrcContext, ptr %38, i32 0, i32 1
  %40 = load i32, ptr %39, align 8, !tbaa !26
  %41 = sext i32 %40 to i64
  %42 = call i64 @av_rescale(i64 noundef %37, i64 noundef %41, i64 noundef 1000000) #8
  %43 = load ptr, ptr %4, align 8, !tbaa !24
  %44 = getelementptr inbounds nuw %struct.ANoiseSrcContext, ptr %43, i32 0, i32 4
  store i64 %42, ptr %44, align 8, !tbaa !36
  %45 = load ptr, ptr %4, align 8, !tbaa !24
  %46 = getelementptr inbounds nuw %struct.ANoiseSrcContext, ptr %45, i32 0, i32 5
  %47 = load i32, ptr %46, align 8, !tbaa !62
  switch i32 %47, label %82 [
    i32 0, label %48
    i32 1, label %51
    i32 2, label %54
    i32 3, label %57
    i32 4, label %60
    i32 5, label %63
  ]

48:                                               ; preds = %34
  %49 = load ptr, ptr %4, align 8, !tbaa !24
  %50 = getelementptr inbounds nuw %struct.ANoiseSrcContext, ptr %49, i32 0, i32 10
  store ptr @white_filter, ptr %50, align 8, !tbaa !45
  br label %82

51:                                               ; preds = %34
  %52 = load ptr, ptr %4, align 8, !tbaa !24
  %53 = getelementptr inbounds nuw %struct.ANoiseSrcContext, ptr %52, i32 0, i32 10
  store ptr @pink_filter, ptr %53, align 8, !tbaa !45
  br label %82

54:                                               ; preds = %34
  %55 = load ptr, ptr %4, align 8, !tbaa !24
  %56 = getelementptr inbounds nuw %struct.ANoiseSrcContext, ptr %55, i32 0, i32 10
  store ptr @brown_filter, ptr %56, align 8, !tbaa !45
  br label %82

57:                                               ; preds = %34
  %58 = load ptr, ptr %4, align 8, !tbaa !24
  %59 = getelementptr inbounds nuw %struct.ANoiseSrcContext, ptr %58, i32 0, i32 10
  store ptr @blue_filter, ptr %59, align 8, !tbaa !45
  br label %82

60:                                               ; preds = %34
  %61 = load ptr, ptr %4, align 8, !tbaa !24
  %62 = getelementptr inbounds nuw %struct.ANoiseSrcContext, ptr %61, i32 0, i32 10
  store ptr @violet_filter, ptr %62, align 8, !tbaa !45
  br label %82

63:                                               ; preds = %34
  %64 = load ptr, ptr %4, align 8, !tbaa !24
  %65 = getelementptr inbounds nuw %struct.ANoiseSrcContext, ptr %64, i32 0, i32 2
  %66 = load double, ptr %65, align 8, !tbaa !43
  %67 = load ptr, ptr %4, align 8, !tbaa !24
  %68 = getelementptr inbounds nuw %struct.ANoiseSrcContext, ptr %67, i32 0, i32 3
  %69 = load double, ptr %68, align 8, !tbaa !63
  %70 = fmul nsz double %66, %69
  %71 = load ptr, ptr %4, align 8, !tbaa !24
  %72 = getelementptr inbounds nuw %struct.ANoiseSrcContext, ptr %71, i32 0, i32 11
  %73 = getelementptr inbounds [7 x double], ptr %72, i64 0, i64 0
  store double %70, ptr %73, align 8, !tbaa !44
  %74 = load ptr, ptr %4, align 8, !tbaa !24
  %75 = getelementptr inbounds nuw %struct.ANoiseSrcContext, ptr %74, i32 0, i32 2
  %76 = load double, ptr %75, align 8, !tbaa !43
  %77 = load ptr, ptr %4, align 8, !tbaa !24
  %78 = getelementptr inbounds nuw %struct.ANoiseSrcContext, ptr %77, i32 0, i32 11
  %79 = getelementptr inbounds [7 x double], ptr %78, i64 0, i64 1
  store double %76, ptr %79, align 8, !tbaa !44
  %80 = load ptr, ptr %4, align 8, !tbaa !24
  %81 = getelementptr inbounds nuw %struct.ANoiseSrcContext, ptr %80, i32 0, i32 10
  store ptr @velvet_filter, ptr %81, align 8, !tbaa !45
  br label %82

82:                                               ; preds = %34, %63, %60, %57, %54, %51, %48
  call void @llvm.lifetime.end.p0(i64 8, ptr %4) #7
  call void @llvm.lifetime.end.p0(i64 8, ptr %3) #7
  ret i32 0
}