; Function Attrs: cold nounwind optsize uwtable
define internal noundef i32 @config_props(ptr noundef readonly captures(none) %0) #0 {
  %2 = load ptr, ptr %0, align 8, !tbaa !48
  %3 = getelementptr inbounds nuw i8, ptr %2, i64 72
  %4 = load ptr, ptr %3, align 8, !tbaa !4
  %5 = getelementptr inbounds nuw i8, ptr %4, i64 48
  %6 = load i64, ptr %5, align 8, !tbaa !54
  %7 = icmp eq i64 %6, -1
  br i1 %7, label %8, label %11

8:                                                ; preds = %1
  %9 = tail call i32 @av_get_random_seed() #10
  %10 = zext i32 %9 to i64
  store i64 %10, ptr %5, align 8, !tbaa !54
  br label %11

11:                                               ; preds = %8, %1
  %12 = phi i64 [ %10, %8 ], [ %6, %1 ]
  %13 = getelementptr inbounds nuw i8, ptr %4, i64 144
  %14 = trunc i64 %12 to i32
  tail call void @av_lfg_init(ptr noundef nonnull %13, i32 noundef %14) #10
  %15 = getelementptr inbounds nuw i8, ptr %4, i64 32
  %16 = load i64, ptr %15, align 8, !tbaa !31
  %17 = icmp eq i64 %16, 0
  br i1 %17, label %18, label %20

18:                                               ; preds = %11
  %19 = getelementptr inbounds nuw i8, ptr %4, i64 72
  store i32 1, ptr %19, align 8, !tbaa !29
  br label %20

20:                                               ; preds = %18, %11
  %21 = getelementptr inbounds nuw i8, ptr %4, i64 8
  %22 = load i32, ptr %21, align 8, !tbaa !20
  %23 = sext i32 %22 to i64
  %24 = tail call i64 @av_rescale(i64 noundef %16, i64 noundef %23, i64 noundef 1000000) #11
  store i64 %24, ptr %15, align 8, !tbaa !31
  %25 = getelementptr inbounds nuw i8, ptr %4, i64 40
  %26 = load i32, ptr %25, align 8, !tbaa !55
  switch i32 %26, label %40 [
    i32 0, label %.sink.split
    i32 1, label %27
    i32 2, label %28
    i32 3, label %29
    i32 4, label %30
    i32 5, label %31
  ]

27:                                               ; preds = %20
  br label %.sink.split

28:                                               ; preds = %20
  br label %.sink.split

29:                                               ; preds = %20
  br label %.sink.split

30:                                               ; preds = %20
  br label %.sink.split

31:                                               ; preds = %20
  %32 = getelementptr inbounds nuw i8, ptr %4, i64 16
  %33 = load double, ptr %32, align 8, !tbaa !34
  %34 = getelementptr inbounds nuw i8, ptr %4, i64 24
  %35 = load double, ptr %34, align 8, !tbaa !56
  %36 = fmul nsz double %33, %35
  %37 = getelementptr inbounds nuw i8, ptr %4, i64 88
  store double %36, ptr %37, align 8, !tbaa !37
  %38 = getelementptr inbounds nuw i8, ptr %4, i64 96
  store double %33, ptr %38, align 8, !tbaa !37
  br label %.sink.split

.sink.split:                                      ; preds = %20, %27, %28, %29, %30, %31
  %velvet_filter.sink = phi ptr [ @velvet_filter, %31 ], [ @violet_filter, %30 ], [ @blue_filter, %29 ], [ @brown_filter, %28 ], [ @pink_filter, %27 ], [ @white_filter, %20 ]
  %39 = getelementptr inbounds nuw i8, ptr %4, i64 80
  store ptr %velvet_filter.sink, ptr %39, align 8, !tbaa !36
  br label %40

40:                                               ; preds = %.sink.split, %20
  ret i32 0
}